ccopy_reg
_reconstructor
p0
(csklearn.linear_model.coordinate_descent
ElasticNet
p1
c__builtin__
object
p2
Ntp3
Rp4
(dp5
S'normalize'
p6
I01
sS'warm_start'
p7
I00
sS'selection'
p8
S'random'
p9
sS'fit_intercept'
p10
I00
sS'l1_ratio'
p11
F0.5
sS'max_iter'
p12
I10000
sS'dual_gap_'
p13
cnumpy.core.multiarray
_reconstruct
p14
(cnumpy
ndarray
p15
(I0
tp16
S'b'
p17
tp18
Rp19
(I1
(tcnumpy
dtype
p20
(S'f8'
p21
I0
I1
tp22
Rp23
(I3
S'<'
p24
NNNI-1
I-1
I0
tp25
bI00
S'\x00\x00L\x8a\x99k\xe5>'
p26
tp27
bsS'random_state'
p28
NsS'n_iter_'
p29
I325
sS'precompute'
p30
I00
sS'coef_'
p31
g14
(g15
(I0
tp32
g17
tp33
Rp34
(I1
(I14
tp35
g23
I00
S"X\xff3\x046\xda\x86?y\xe6\x15w\xf1\x1d\xb4?\xd2l\xf8*q\x90\xa2?\xa7\x93\x08\x11\x86S\xac?U\xdb\x0c\xb7\xec\x95\x9c?D\xac\xbf9\x96\x05\xd6?F\x85\xc1\n.*\xa7?3m\x1c\xdc\n\x83x?|tE\x1e\x0b\x0c\xaa?\r \x8f\xb2J.\xd0?\x91#\xdd\x14\xcdZ\x8c?Ru7'p\x87\xa9\xbf:\xbd,\xc1*\xab\x99?-\xc7,\xc16p\xac?"
p36
tp37
bsS'tol'
p38
F1e-06
sS'positive'
p39
I00
sS'copy_X'
p40
I01
sS'alpha'
p41
F0.005
sS'intercept_'
p42
F0.0
sb.