ccopy_reg
_reconstructor
p0
(csklearn.linear_model.coordinate_descent
ElasticNet
p1
c__builtin__
object
p2
Ntp3
Rp4
(dp5
S'normalize'
p6
I01
sS'warm_start'
p7
I00
sS'selection'
p8
S'random'
p9
sS'fit_intercept'
p10
I00
sS'l1_ratio'
p11
F0.5
sS'max_iter'
p12
I10000
sS'dual_gap_'
p13
cnumpy.core.multiarray
_reconstruct
p14
(cnumpy
ndarray
p15
(I0
tp16
S'b'
p17
tp18
Rp19
(I1
(tcnumpy
dtype
p20
(S'f8'
p21
I0
I1
tp22
Rp23
(I3
S'<'
p24
NNNI-1
I-1
I0
tp25
bI00
S'\x00\x00\\\x8f\x05\xcf\xe4>'
p26
tp27
bsS'random_state'
p28
NsS'n_iter_'
p29
I471
sS'precompute'
p30
I00
sS'coef_'
p31
g14
(g15
(I0
tp32
g17
tp33
Rp34
(I1
(I11
tp35
g23
I00
S'\xc9\xca\x0e\xbd\x1a\x17\x8c?j`*B\xe1\x9e\xa2?1\xbb\xea\xf6q\x85\xa1?\xd5Zc\xce\xb4*\x90?r\xe5\xe0=\x81\x8e\xa3?Q\xc9\x1f\x8d\x13\x8e\xd4?CA\x06\xd1$\xc1\xb3?\xdd\xc6\x10\xd534\xd7?i\xe8\xe9\x82\xa0\xec\x9d?\x8c\xc4FZ\xf9\x0f\x97?\x91\x17\x92\x9b\xe4]\xb9?'
p36
tp37
bsS'tol'
p38
F1e-06
sS'positive'
p39
I00
sS'copy_X'
p40
I01
sS'alpha'
p41
F0.005
sS'intercept_'
p42
F0.0
sb.